 r0   r1   r2   r3   r4   r5   sp  flags pc
0000 0000 0000 0000 0000 0000 ffda ---- 0000:f009            unknown
0000 0000 0000 0000 0000 0000 ffda ---- 0002:1180            mov sp, r0
ffda 0000 0000 0000 0000 0000 ffda -N-- 0004:1226            mov (r0), -(sp)
ffda 0000 0000 0000 0000 0000 ffd8 ---- 0006:0bd0            tst (r0)+
ffdc 0000 0000 0000 0000 0000 ffd8 ---- 0008:1036 0210       mov r0, 2(sp)
ffdc 0000 0000 0000 0000 0000 ffd8 -N-- 000c:09f7 0809       jsr pc, 0018
ffdc 0000 0000 0000 0000 0000 ffd6 -N-- 0018:0977 9e09       jsr r5, 08ba
ffdc 0000 0000 0000 0000 001c ffd4 -N-- 08ba:1140            mov r5, r0
001c 0000 0000 0000 0000 001c ffd4 ---- 08bc:1185            mov sp, r5
001c 0000 0000 0000 0000 ffd4 ffd4 -N-- 08be:1126            mov r4, -(sp)
001c 0000 0000 0000 0000 ffd4 ffd2 Z--- 08c0:10e6            mov r3, -(sp)
001c 0000 0000 0000 0000 ffd4 ffd0 Z--- 08c2:10a6            mov r2, -(sp)
001c 0000 0000 0000 0000 ffd4 ffce Z--- 08c4:0be6            tst -(sp)
001c 0000 0000 0000 0000 ffd4 ffcc Z--- 08c6:0048            jmp (r0)
001c 0000 0000 0000 0000 ffd4 ffcc Z--- 001c:e5c6 06e5       sub $0006, sp
001c 0000 0000 0000 0000 ffd4 ffc6 -N-- 0020:0af5 040a       dec 4(r5)
001c 0000 0000 0000 0000 ffd4 ffc6 ---- 0024:0bf5 040b       tst 4(r5)
001c 0000 0000 0000 0000 ffd4 ffc6 ---- 0028:0734            ble 0092
001c 0000 0000 0000 0000 ffd4 ffc6 ---- 002a:1d40 061d       mov 6(r5), r0
ffdc 0000 0000 0000 0000 ffd4 ffc6 -N-- 002e:a5f8 2da5 002d  cmpb $002d, *2(r0)
ffdc 0000 0000 0000 0000 ffd4 ffc6 -NC- 0034:022e            bne 0092
ffdc 0000 0000 0000 0000 ffd4 ffc6 -NC- 0092:0bf5 040b       tst 4(r5)
ffdc 0000 0000 0000 0000 ffd4 ffc6 ---- 0096:0209            bne 00aa
ffdc 0000 0000 0000 0000 ffd4 ffc6 ---- 00aa:0a0e            clr (sp)
ffdc 0000 0000 0000 0000 ffd4 ffc6 Z--- 00ac:65f5 0265 0002  add $0002, 6(r5)
ffdc 0000 0000 0000 0000 ffd4 ffc6 -N-- 00b2:1f66 061f       mov *6(r5), -(sp)
ffdc 0000 0000 0000 0000 ffd4 ffc4 -N-- 00b6:09df 2e09       jsr pc, *$062e
ffdc 0000 0000 0000 0000 ffd4 ffc2 -N-- 062e:1166            mov r5, -(sp)
ffdc 0000 0000 0000 0000 ffd4 ffc0 -N-- 0630:1185            mov sp, r5
ffdc 0000 0000 0000 0000 ffc0 ffc0 -N-- 0632:1d77 041d 0004  mov 4(r5), 09cc
ffdc 0000 0000 0000 0000 ffc0 ffc0 -N-- 0638:1d77 061d 0006  mov 6(r5), 09ce
ffdc 0000 0000 0000 0000 ffc0 ffc0 Z--- 063e:8900            sys 0000
open("a.out", 0) => 3>
0003 0000 0000 0000 0000 ffc0 ffc0 Z--- 0642:0002            bcc 0648
0003 0000 0000 0000 0000 ffc0 ffc0 Z--- 0648:0085            mov (sp)+, r5
0003 0000 0000 0000 0000 ffd4 ffc2 -N-- 064a:0087            rts pc, 
0003 0000 0000 0000 0000 ffd4 ffc4 -N-- 00ba:0bd6            tst (sp)+
0003 0000 0000 0000 0000 ffd4 ffc6 -N-- 00bc:1037 2e10       mov r0, 09ee
0003 0000 0000 0000 0000 ffd4 ffc6 ---- 00c0:0bf7 2a0b       tst 09ee
0003 0000 0000 0000 0000 ffd4 ffc6 ---- 00c4:0406            bge 00d2
0003 0000 0000 0000 0000 ffd4 ffc6 ---- 00d2:15ce 1015       mov $0010, (sp)
0003 0000 0000 0000 0000 ffd4 ffc6 ---- 00d6:15e6 f015       mov $09f0, -(sp)
0003 0000 0000 0000 0000 ffd4 ffc4 ---- 00da:1de6 101d       mov 09ee, -(sp)
0003 0000 0000 0000 0000 ffd4 ffc2 ---- 00de:09df 2209       jsr pc, *$0822
0003 0000 0000 0000 0000 ffd4 ffc0 ---- 0822:1166            mov r5, -(sp)
0003 0000 0000 0000 0000 ffd4 ffbe -N-- 0824:1185            mov sp, r5
0003 0000 0000 0000 0000 ffbe ffbe -N-- 0826:1d40 041d       mov 4(r5), r0
0003 0000 0000 0000 0000 ffbe ffbe ---- 082a:1d77 061d 0006  mov 6(r5), 09d2
0003 0000 0000 0000 0000 ffbe ffbe ---- 0830:1d77 081d 0008  mov 8(r5), 09d4
0003 0000 0000 0000 0000 ffbe ffbe ---- 0836:8900            sys 0000
read(3, 0x9f0, 16) => 16>
0010 0000 0000 0000 0000 ffbe ffbe ---- 083a:8602            bcc 0840
0010 0000 0000 0000 0000 ffbe ffbe ---- 0840:1585            mov (sp)+, r5
0010 0000 0000 0000 0000 ffd4 ffc0 -N-- 0842:0087            rts pc, 
0010 0000 0000 0000 0000 ffd4 ffc2 -N-- 00e2:2596            cmp (sp)+, (sp)+
0010 0000 0000 0000 0000 ffd4 ffc6 -NC- 00e4:25f7 0725 0107  cmp $0107, 09f0
0010 0000 0000 0000 0000 ffd4 ffc6 Z--- 00ea:031a            beq 0120
0010 0000 0000 0000 0000 ffd4 ffc6 Z--- 0120:15ce 0115       mov $0001, (sp)
0010 0000 0000 0000 0000 ffd4 ffc6 ---- 0124:1de6 ca1d       mov 09f2, -(sp)
0010 0000 0000 0000 0000 ffd4 ffc4 ---- 0128:1de6 c21d       mov 09ee, -(sp)
0010 0000 0000 0000 0000 ffd4 ffc2 ---- 012c:09df 8c09       jsr pc, *$088c
0010 0000 0000 0000 0000 ffd4 ffc0 ---- 088c:1166            mov r5, -(sp)
0010 0000 0000 0000 0000 ffd4 ffbe -N-- 088e:1185            mov sp, r5
0010 0000 0000 0000 0000 ffbe ffbe -N-- 0890:1d40 041d       mov 4(r5), r0
0003 0000 0000 0000 0000 ffbe ffbe ---- 0894:1d77 061d 0006  mov 6(r5), 09de
0003 0000 0000 0000 0000 ffbe ffbe ---- 089a:1d77 081d 0008  mov 8(r5), 09e0
0003 0000 0000 0000 0000 ffbe ffbe ---- 08a0:8900            sys 0000
lseek(3, 142, 1) => 158>
009e 0000 0000 0000 0000 ffbe ffbe ---- 08a4:8602            bcc 08aa
009e 0000 0000 0000 0000 ffbe ffbe ---- 08aa:0a00            clr r0
0000 0000 0000 0000 0000 ffbe ffbe Z--- 08ac:1585            mov (sp)+, r5
0000 0000 0000 0000 0000 ffd4 ffc0 -N-- 08ae:0087            rts pc, 
0000 0000 0000 0000 0000 ffd4 ffc2 -N-- 0130:2596            cmp (sp)+, (sp)+
0000 0000 0000 0000 0000 ffd4 ffc6 -NC- 0132:15ce 0115       mov $0001, (sp)
0000 0000 0000 0000 0000 ffd4 ffc6 --C- 0136:1de6 ba1d       mov 09f4, -(sp)
0000 0000 0000 0000 0000 ffd4 ffc4 --C- 013a:1de6 b01d       mov 09ee, -(sp)
0000 0000 0000 0000 0000 ffd4 ffc2 --C- 013e:09df 8c09       jsr pc, *$088c
0000 0000 0000 0000 0000 ffd4 ffc0 --C- 088c:1166            mov r5, -(sp)
0000 0000 0000 0000 0000 ffd4 ffbe -NC- 088e:1185            mov sp, r5
0000 0000 0000 0000 0000 ffbe ffbe -NC- 0890:1d40 041d       mov 4(r5), r0
0003 0000 0000 0000 0000 ffbe ffbe --C- 0894:1d77 061d 0006  mov 6(r5), 09de
0003 0000 0000 0000 0000 ffbe ffbe --C- 089a:1d77 081d 0008  mov 8(r5), 09e0
0003 0000 0000 0000 0000 ffbe ffbe --C- 08a0:8900            sys 0000
lseek(3, 14, 1) => 172>
00ac 0000 0000 0000 0000 ffbe ffbe ---- 08a4:8602            bcc 08aa
00ac 0000 0000 0000 0000 ffbe ffbe ---- 08aa:0a00            clr r0
0000 0000 0000 0000 0000 ffbe ffbe Z--- 08ac:1585            mov (sp)+, r5
0000 0000 0000 0000 0000 ffd4 ffc0 -N-- 08ae:0087            rts pc, 
0000 0000 0000 0000 0000 ffd4 ffc2 -N-- 0142:2596            cmp (sp)+, (sp)+
0000 0000 0000 0000 0000 ffd4 ffc6 -NC- 0144:25f7 0125 0001  cmp $0001, 09fe
0000 0000 0000 0000 0000 ffd4 ffc6 Z--- 014a:0312            beq 0170
0000 0000 0000 0000 0000 ffd4 ffc6 Z--- 0170:15ce 0c15       mov $000c, (sp)
0000 0000 0000 0000 0000 ffd4 ffc6 ---- 0174:1de6 801d       mov 09f8, -(sp)
0000 0000 0000 0000 0000 ffd4 ffc4 ---- 0178:0a26            clr -(sp)
0000 0000 0000 0000 0000 ffd4 ffc2 Z--- 017a:09df e409       jsr pc, *$08e4
0000 0000 0000 0000 0000 ffd4 ffc0 Z--- 08e4:1d80 021d       mov 2(sp), r0
0000 0000 0000 0000 0000 ffd4 ffc0 Z--- 08e8:1d81 041d       mov 4(sp), r1
0000 00c0 0000 0000 0000 ffd4 ffc0 ---- 08ec:7236 0672       div 6(sp), r0, 
0000 0010 0000 0000 0000 ffd4 ffc0 ---- 08f0:1077 2410       mov r1, 0c18
0000 0010 0000 0000 0000 ffd4 ffc0 ---- 08f4:0087            rts pc, 
0000 0010 0000 0000 0000 ffd4 ffc2 ---- 017e:2596            cmp (sp)+, (sp)+
0000 0010 0000 0000 0000 ffd4 ffc6 -NC- 0180:1035 f810       mov r0, -8(r5)
0000 0010 0000 0000 0000 ffd4 ffc6 Z-C- 0184:0bf5 f80b       tst -8(r5)
0000 0010 0000 0000 0000 ffd4 ffc6 Z--- 0188:0206            bne 0196
0000 0010 0000 0000 0000 ffd4 ffc6 Z--- 018a:15ce 6515       mov $0965, (sp)
0000 0010 0000 0000 0000 ffd4 ffc6 ---- 018e:09df e209       jsr pc, *$03e2
0000 0010 0000 0000 0000 ffd4 ffc4 ---- 03e2:0977 d409       jsr r5, 08ba
0000 0010 0000 0000 0000 03e6 ffc2 ---- 08ba:1140            mov r5, r0
03e6 0010 0000 0000 0000 03e6 ffc2 ---- 08bc:1185            mov sp, r5
03e6 0010 0000 0000 0000 ffc2 ffc2 -N-- 08be:1126            mov r4, -(sp)
03e6 0010 0000 0000 0000 ffc2 ffc0 Z--- 08c0:10e6            mov r3, -(sp)
03e6 0010 0000 0000 0000 ffc2 ffbe Z--- 08c2:10a6            mov r2, -(sp)
03e6 0010 0000 0000 0000 ffc2 ffbc Z--- 08c4:0be6            tst -(sp)
03e6 0010 0000 0000 0000 ffc2 ffba Z--- 08c6:0048            jmp (r0)
03e6 0010 0000 0000 0000 ffc2 ffba Z--- 03e6:e5c6 7ee5       sub $007e, sp
03e6 0010 0000 0000 0000 ffc2 ff3c -N-- 03ea:1d77 041d 0004  mov 4(r5), 0a0a
03e6 0010 0000 0000 0000 ffc2 ff3c ---- 03f0:1144            mov r5, r4
03e6 0010 0000 0000 ffc2 ffc2 ff3c -N-- 03f2:65c4 0665       add $0006, r4
03e6 0010 0000 0000 ffc8 ffc2 ff3c -N-- 03f6:9fc0 109f       movb *0a0a, r0
006e 0010 0000 0000 ffc8 ffc2 ff3c ---- 03fa:0309            beq 040e
006e 0010 0000 0000 ffc8 ffc2 ff3c ---- 03fc:0ab7 0a0a       inc 0a0a
006e 0010 0000 0000 ffc8 ffc2 ff3c ---- 0400:2017 2520       cmp r0, $0025
006e 0010 0000 0000 ffc8 ffc2 ff3c ---- 0404:0306            beq 0412
006e 0010 0000 0000 ffc8 ffc2 ff3c ---- 0406:100e            mov r0, (sp)
006e 0010 0000 0000 ffc8 ffc2 ff3c ---- 0408:09df 9409       jsr pc, *$0594
006e 0010 0000 0000 ffc8 ffc2 ff3a ---- 0594:1166            mov r5, -(sp)
006e 0010 0000 0000 ffc8 ffc2 ff38 -N-- 0596:1185            mov sp, r5
006e 0010 0000 0000 ffc8 ff38 ff38 -N-- 0598:1dc0 7a1d       mov 0a16, r0
0000 0010 0000 0000 ffc8 ff38 ff38 Z--- 059c:0204            bne 05a6
0000 0010 0000 0000 ffc8 ff38 ff38 Z--- 059e:09f7 2c09       jsr pc, 05ce
0000 0010 0000 0000 ffc8 ff38 ff36 Z--- 05ce:1dc0 441d       mov 0a16, r0
0000 0010 0000 0000 ffc8 ff38 ff36 Z--- 05d2:030a            beq 05e8
0000 0010 0000 0000 ffc8 ff38 ff36 Z--- 05e8:15f7 1815 0a18  mov $0a18, 0a16
0000 0010 0000 0000 ffc8 ff38 ff36 ---- 05ee:15f7 0015 0200  mov $0200, 0a14
0000 0010 0000 0000 ffc8 ff38 ff36 ---- 05f4:2dd7 1a2d 041a  cmp 0a12, $0002
0000 0010 0000 0000 ffc8 ff38 ff36 -NC- 05fa:8203            bhi 0602
0000 0010 0000 0000 ffc8 ff38 ff36 -NC- 05fc:15f7 0115 0001  mov $0001, 0a14
0000 0010 0000 0000 ffc8 ff38 ff36 --C- 0602:0087            rts pc, 
0000 0010 0000 0000 ffc8 ff38 ff38 --C- 05a2:1dc0 701d       mov 0a16, r0
0a18 0010 0000 0000 ffc8 ff38 ff38 --C- 05a6:9d50 049d       movb 4(r5), (r0)+
0a19 0010 0000 0000 ffc8 ff38 ff38 --C- 05aa:0307            beq 05ba
0a19 0010 0000 0000 ffc8 ff38 ff38 --C- 05ac:0ab7 660a       inc 0a16
0a19 0010 0000 0000 ffc8 ff38 ff38 --C- 05b0:0af7 600a       dec 0a14
0a19 0010 0000 0000 ffc8 ff38 ff38 Z-C- 05b4:0602            bgt 05ba
0a19 0010 0000 0000 ffc8 ff38 ff38 Z-C- 05b6:09f7 1409       jsr pc, 05ce
0a19 0010 0000 0000 ffc8 ff38 ff36 Z-C- 05ce:1dc0 441d       mov 0a16, r0
0a19 0010 0000 0000 ffc8 ff38 ff36 --C- 05d2:030a            beq 05e8
0a19 0010 0000 0000 ffc8 ff38 ff36 --C- 05d4:e5c0 18e5       sub $0a18, r0
0001 0010 0000 0000 ffc8 ff38 ff36 ---- 05d8:1037 ec10       mov r0, 09c8
0001 0010 0000 0000 ffc8 ff38 ff36 ---- 05dc:1dc0 321d       mov 0a12, r0
0000 0010 0000 0000 ffc8 ff38 ff36 Z--- 05e0:0201            bne 05e4
0000 0010 0000 0000 ffc8 ff38 ff36 Z--- 05e2:0a80            inc r0
0001 0010 0000 0000 ffc8 ff38 ff36 ---- 05e4:8900            sys 0000
n0001 0010 0000 0000 ffc8 ff38 ff36 ---- 05e8:15f7 1815 0a18  mov $0a18, 0a16
0001 0010 0000 0000 ffc8 ff38 ff36 ---- 05ee:15f7 0015 0200  mov $0200, 0a14
0001 0010 0000 0000 ffc8 ff38 ff36 ---- 05f4:2dd7 1a2d 041a  cmp 0a12, $0002
0001 0010 0000 0000 ffc8 ff38 ff36 -NC- 05fa:8203            bhi 0602
0001 0010 0000 0000 ffc8 ff38 ff36 -NC- 05fc:15f7 0115 0001  mov $0001, 0a14
0001 0010 0000 0000 ffc8 ff38 ff36 --C- 0602:0087            rts pc, 
0001 0010 0000 0000 ffc8 ff38 ff38 --C- 05ba:1d40 041d       mov 4(r5), r0
006e 0010 0000 0000 ffc8 ff38 ff38 --C- 05be:1585            mov (sp)+, r5
006e 0010 0000 0000 ffc8 ffc2 ff3a -NC- 05c0:0087            rts pc, 
006e 0010 0000 0000 ffc8 ffc2 ff3c -NC- 040c:01f4            br 03f6
006e 0010 0000 0000 ffc8 ffc2 ff3c -NC- 03f6:9fc0 109f       movb *0a0a, r0
006f 0010 0000 0000 ffc8 ffc2 ff3c --C- 03fa:0309            beq 040e
006f 0010 0000 0000 ffc8 ffc2 ff3c --C- 03fc:0ab7 0a0a       inc 0a0a
006f 0010 0000 0000 ffc8 ffc2 ff3c --C- 0400:2017 2520       cmp r0, $0025
006f 0010 0000 0000 ffc8 ffc2 ff3c ---- 0404:0306            beq 0412
006f 0010 0000 0000 ffc8 ffc2 ff3c ---- 0406:100e            mov r0, (sp)
006f 0010 0000 0000 ffc8 ffc2 ff3c ---- 0408:09df 9409       jsr pc, *$0594
006f 0010 0000 0000 ffc8 ffc2 ff3a ---- 0594:1166            mov r5, -(sp)
006f 0010 0000 0000 ffc8 ffc2 ff38 -N-- 0596:1185            mov sp, r5
006f 0010 0000 0000 ffc8 ff38 ff38 -N-- 0598:1dc0 7a1d       mov 0a16, r0
0a18 0010 0000 0000 ffc8 ff38 ff38 ---- 059c:0204            bne 05a6
0a18 0010 0000 0000 ffc8 ff38 ff38 ---- 05a6:9d50 049d       movb 4(r5), (r0)+
0a19 0010 0000 0000 ffc8 ff38 ff38 ---- 05aa:0307            beq 05ba
0a19 0010 0000 0000 ffc8 ff38 ff38 ---- 05ac:0ab7 660a       inc 0a16
0a19 0010 0000 0000 ffc8 ff38 ff38 ---- 05b0:0af7 600a       dec 0a14
0a19 0010 0000 0000 ffc8 ff38 ff38 Z--- 05b4:0602            bgt 05ba
0a19 0010 0000 0000 ffc8 ff38 ff38 Z--- 05b6:09f7 1409       jsr pc, 05ce
0a19 0010 0000 0000 ffc8 ff38 ff36 Z--- 05ce:1dc0 441d       mov 0a16, r0
0a19 0010 0000 0000 ffc8 ff38 ff36 ---- 05d2:030a            beq 05e8
0a19 0010 0000 0000 ffc8 ff38 ff36 ---- 05d4:e5c0 18e5       sub $0a18, r0
0001 0010 0000 0000 ffc8 ff38 ff36 ---- 05d8:1037 ec10       mov r0, 09c8
0001 0010 0000 0000 ffc8 ff38 ff36 ---- 05dc:1dc0 321d       mov 0a12, r0
0000 0010 0000 0000 ffc8 ff38 ff36 Z--- 05e0:0201            bne 05e4
0000 0010 0000 0000 ffc8 ff38 ff36 Z--- 05e2:0a80            inc r0
0001 0010 0000 0000 ffc8 ff38 ff36 ---- 05e4:8900            sys 0000
o0001 0010 0000 0000 ffc8 ff38 ff36 ---- 05e8:15f7 1815 0a18  mov $0a18, 0a16
0001 0010 0000 0000 ffc8 ff38 ff36 ---- 05ee:15f7 0015 0200  mov $0200, 0a14
0001 0010 0000 0000 ffc8 ff38 ff36 ---- 05f4:2dd7 1a2d 041a  cmp 0a12, $0002
0001 0010 0000 0000 ffc8 ff38 ff36 -NC- 05fa:8203            bhi 0602
0001 0010 0000 0000 ffc8 ff38 ff36 -NC- 05fc:15f7 0115 0001  mov $0001, 0a14
0001 0010 0000 0000 ffc8 ff38 ff36 --C- 0602:0087            rts pc, 
0001 0010 0000 0000 ffc8 ff38 ff38 --C- 05ba:1d40 041d       mov 4(r5), r0
006f 0010 0000 0000 ffc8 ff38 ff38 --C- 05be:1585            mov (sp)+, r5
006f 0010 0000 0000 ffc8 ffc2 ff3a -NC- 05c0:0087            rts pc, 
006f 0010 0000 0000 ffc8 ffc2 ff3c -NC- 040c:01f4            br 03f6
006f 0010 0000 0000 ffc8 ffc2 ff3c -NC- 03f6:9fc0 109f       movb *0a0a, r0
0020 0010 0000 0000 ffc8 ffc2 ff3c --C- 03fa:0309            beq 040e
0020 0010 0000 0000 ffc8 ffc2 ff3c --C- 03fc:0ab7 0a0a       inc 0a0a
0020 0010 0000 0000 ffc8 ffc2 ff3c --C- 0400:2017 2520       cmp r0, $0025
0020 0010 0000 0000 ffc8 ffc2 ff3c -NC- 0404:0306            beq 0412
0020 0010 0000 0000 ffc8 ffc2 ff3c -NC- 0406:100e            mov r0, (sp)
0020 0010 0000 0000 ffc8 ffc2 ff3c --C- 0408:09df 9409       jsr pc, *$0594
0020 0010 0000 0000 ffc8 ffc2 ff3a --C- 0594:1166            mov r5, -(sp)
0020 0010 0000 0000 ffc8 ffc2 ff38 -NC- 0596:1185            mov sp, r5
0020 0010 0000 0000 ffc8 ff38 ff38 -NC- 0598:1dc0 7a1d       mov 0a16, r0
0a18 0010 0000 0000 ffc8 ff38 ff38 --C- 059c:0204            bne 05a6
0a18 0010 0000 0000 ffc8 ff38 ff38 --C- 05a6:9d50 049d       movb 4(r5), (r0)+
0a19 0010 0000 0000 ffc8 ff38 ff38 --C- 05aa:0307            beq 05ba
0a19 0010 0000 0000 ffc8 ff38 ff38 --C- 05ac:0ab7 660a       inc 0a16
0a19 0010 0000 0000 ffc8 ff38 ff38 --C- 05b0:0af7 600a       dec 0a14
0a19 0010 0000 0000 ffc8 ff38 ff38 Z-C- 05b4:0602            bgt 05ba
0a19 0010 0000 0000 ffc8 ff38 ff38 Z-C- 05b6:09f7 1409       jsr pc, 05ce
0a19 0010 0000 0000 ffc8 ff38 ff36 Z-C- 05ce:1dc0 441d       mov 0a16, r0
0a19 0010 0000 0000 ffc8 ff38 ff36 --C- 05d2:030a            beq 05e8
0a19 0010 0000 0000 ffc8 ff38 ff36 --C- 05d4:e5c0 18e5       sub $0a18, r0
0001 0010 0000 0000 ffc8 ff38 ff36 ---- 05d8:1037 ec10       mov r0, 09c8
0001 0010 0000 0000 ffc8 ff38 ff36 ---- 05dc:1dc0 321d       mov 0a12, r0
0000 0010 0000 0000 ffc8 ff38 ff36 Z--- 05e0:0201            bne 05e4
0000 0010 0000 0000 ffc8 ff38 ff36 Z--- 05e2:0a80            inc r0
0001 0010 0000 0000 ffc8 ff38 ff36 ---- 05e4:8900            sys 0000
 0001 0010 0000 0000 ffc8 ff38 ff36 ---- 05e8:15f7 1815 0a18  mov $0a18, 0a16
0001 0010 0000 0000 ffc8 ff38 ff36 ---- 05ee:15f7 0015 0200  mov $0200, 0a14
0001 0010 0000 0000 ffc8 ff38 ff36 ---- 05f4:2dd7 1a2d 041a  cmp 0a12, $0002
0001 0010 0000 0000 ffc8 ff38 ff36 -NC- 05fa:8203            bhi 0602
0001 0010 0000 0000 ffc8 ff38 ff36 -NC- 05fc:15f7 0115 0001  mov $0001, 0a14
0001 0010 0000 0000 ffc8 ff38 ff36 --C- 0602:0087            rts pc, 
0001 0010 0000 0000 ffc8 ff38 ff38 --C- 05ba:1d40 041d       mov 4(r5), r0
0020 0010 0000 0000 ffc8 ff38 ff38 --C- 05be:1585            mov (sp)+, r5
0020 0010 0000 0000 ffc8 ffc2 ff3a -NC- 05c0:0087            rts pc, 
0020 0010 0000 0000 ffc8 ffc2 ff3c -NC- 040c:01f4            br 03f6
0020 0010 0000 0000 ffc8 ffc2 ff3c -NC- 03f6:9fc0 109f       movb *0a0a, r0
006e 0010 0000 0000 ffc8 ffc2 ff3c --C- 03fa:0309            beq 040e
006e 0010 0000 0000 ffc8 ffc2 ff3c --C- 03fc:0ab7 0a0a       inc 0a0a
006e 0010 0000 0000 ffc8 ffc2 ff3c --C- 0400:2017 2520       cmp r0, $0025
006e 0010 0000 0000 ffc8 ffc2 ff3c ---- 0404:0306            beq 0412
006e 0010 0000 0000 ffc8 ffc2 ff3c ---- 0406:100e            mov r0, (sp)
006e 0010 0000 0000 ffc8 ffc2 ff3c ---- 0408:09df 9409       jsr pc, *$0594
006e 0010 0000 0000 ffc8 ffc2 ff3a ---- 0594:1166            mov r5, -(sp)
006e 0010 0000 0000 ffc8 ffc2 ff38 -N-- 0596:1185            mov sp, r5
006e 0010 0000 0000 ffc8 ff38 ff38 -N-- 0598:1dc0 7a1d       mov 0a16, r0
0a18 0010 0000 0000 ffc8 ff38 ff38 ---- 059c:0204            bne 05a6
0a18 0010 0000 0000 ffc8 ff38 ff38 ---- 05a6:9d50 049d       movb 4(r5), (r0)+
0a19 0010 0000 0000 ffc8 ff38 ff38 ---- 05aa:0307            beq 05ba
0a19 0010 0000 0000 ffc8 ff38 ff38 ---- 05ac:0ab7 660a       inc 0a16
0a19 0010 0000 0000 ffc8 ff38 ff38 ---- 05b0:0af7 600a       dec 0a14
0a19 0010 0000 0000 ffc8 ff38 ff38 Z--- 05b4:0602            bgt 05ba
0a19 0010 0000 0000 ffc8 ff38 ff38 Z--- 05b6:09f7 1409       jsr pc, 05ce
0a19 0010 0000 0000 ffc8 ff38 ff36 Z--- 05ce:1dc0 441d       mov 0a16, r0
0a19 0010 0000 0000 ffc8 ff38 ff36 ---- 05d2:030a            beq 05e8
0a19 0010 0000 0000 ffc8 ff38 ff36 ---- 05d4:e5c0 18e5       sub $0a18, r0
0001 0010 0000 0000 ffc8 ff38 ff36 ---- 05d8:1037 ec10       mov r0, 09c8
0001 0010 0000 0000 ffc8 ff38 ff36 ---- 05dc:1dc0 321d       mov 0a12, r0
0000 0010 0000 0000 ffc8 ff38 ff36 Z--- 05e0:0201            bne 05e4
0000 0010 0000 0000 ffc8 ff38 ff36 Z--- 05e2:0a80            inc r0
0001 0010 0000 0000 ffc8 ff38 ff36 ---- 05e4:8900            sys 0000
n0001 0010 0000 0000 ffc8 ff38 ff36 ---- 05e8:15f7 1815 0a18  mov $0a18, 0a16
0001 0010 0000 0000 ffc8 ff38 ff36 ---- 05ee:15f7 0015 0200  mov $0200, 0a14
0001 0010 0000 0000 ffc8 ff38 ff36 ---- 05f4:2dd7 1a2d 041a  cmp 0a12, $0002
0001 0010 0000 0000 ffc8 ff38 ff36 -NC- 05fa:8203            bhi 0602
0001 0010 0000 0000 ffc8 ff38 ff36 -NC- 05fc:15f7 0115 0001  mov $0001, 0a14
0001 0010 0000 0000 ffc8 ff38 ff36 --C- 0602:0087            rts pc, 
0001 0010 0000 0000 ffc8 ff38 ff38 --C- 05ba:1d40 041d       mov 4(r5), r0
006e 0010 0000 0000 ffc8 ff38 ff38 --C- 05be:1585            mov (sp)+, r5
006e 0010 0000 0000 ffc8 ffc2 ff3a -NC- 05c0:0087            rts pc, 
006e 0010 0000 0000 ffc8 ffc2 ff3c -NC- 040c:01f4            br 03f6
006e 0010 0000 0000 ffc8 ffc2 ff3c -NC- 03f6:9fc0 109f       movb *0a0a, r0
0061 0010 0000 0000 ffc8 ffc2 ff3c --C- 03fa:0309            beq 040e
0061 0010 0000 0000 ffc8 ffc2 ff3c --C- 03fc:0ab7 0a0a       inc 0a0a
0061 0010 0000 0000 ffc8 ffc2 ff3c --C- 0400:2017 2520       cmp r0, $0025
0061 0010 0000 0000 ffc8 ffc2 ff3c ---- 0404:0306            beq 0412
0061 0010 0000 0000 ffc8 ffc2 ff3c ---- 0406:100e            mov r0, (sp)
0061 0010 0000 0000 ffc8 ffc2 ff3c ---- 0408:09df 9409       jsr pc, *$0594
0061 0010 0000 0000 ffc8 ffc2 ff3a ---- 0594:1166            mov r5, -(sp)
0061 0010 0000 0000 ffc8 ffc2 ff38 -N-- 0596:1185            mov sp, r5
0061 0010 0000 0000 ffc8 ff38 ff38 -N-- 0598:1dc0 7a1d       mov 0a16, r0
0a18 0010 0000 0000 ffc8 ff38 ff38 ---- 059c:0204            bne 05a6
0a18 0010 0000 0000 ffc8 ff38 ff38 ---- 05a6:9d50 049d       movb 4(r5), (r0)+
0a19 0010 0000 0000 ffc8 ff38 ff38 ---- 05aa:0307            beq 05ba
0a19 0010 0000 0000 ffc8 ff38 ff38 ---- 05ac:0ab7 660a       inc 0a16
0a19 0010 0000 0000 ffc8 ff38 ff38 ---- 05b0:0af7 600a       dec 0a14
0a19 0010 0000 0000 ffc8 ff38 ff38 Z--- 05b4:0602            bgt 05ba
0a19 0010 0000 0000 ffc8 ff38 ff38 Z--- 05b6:09f7 1409       jsr pc, 05ce
0a19 0010 0000 0000 ffc8 ff38 ff36 Z--- 05ce:1dc0 441d       mov 0a16, r0
0a19 0010 0000 0000 ffc8 ff38 ff36 ---- 05d2:030a            beq 05e8
0a19 0010 0000 0000 ffc8 ff38 ff36 ---- 05d4:e5c0 18e5       sub $0a18, r0
0001 0010 0000 0000 ffc8 ff38 ff36 ---- 05d8:1037 ec10       mov r0, 09c8
0001 0010 0000 0000 ffc8 ff38 ff36 ---- 05dc:1dc0 321d       mov 0a12, r0
0000 0010 0000 0000 ffc8 ff38 ff36 Z--- 05e0:0201            bne 05e4
0000 0010 0000 0000 ffc8 ff38 ff36 Z--- 05e2:0a80            inc r0
0001 0010 0000 0000 ffc8 ff38 ff36 ---- 05e4:8900            sys 0000
a0001 0010 0000 0000 ffc8 ff38 ff36 ---- 05e8:15f7 1815 0a18  mov $0a18, 0a16
0001 0010 0000 0000 ffc8 ff38 ff36 ---- 05ee:15f7 0015 0200  mov $0200, 0a14
0001 0010 0000 0000 ffc8 ff38 ff36 ---- 05f4:2dd7 1a2d 041a  cmp 0a12, $0002
0001 0010 0000 0000 ffc8 ff38 ff36 -NC- 05fa:8203            bhi 0602
0001 0010 0000 0000 ffc8 ff38 ff36 -NC- 05fc:15f7 0115 0001  mov $0001, 0a14
0001 0010 0000 0000 ffc8 ff38 ff36 --C- 0602:0087            rts pc, 
0001 0010 0000 0000 ffc8 ff38 ff38 --C- 05ba:1d40 041d       mov 4(r5), r0
0061 0010 0000 0000 ffc8 ff38 ff38 --C- 05be:1585            mov (sp)+, r5
0061 0010 0000 0000 ffc8 ffc2 ff3a -NC- 05c0:0087            rts pc, 
0061 0010 0000 0000 ffc8 ffc2 ff3c -NC- 040c:01f4            br 03f6
0061 0010 0000 0000 ffc8 ffc2 ff3c -NC- 03f6:9fc0 109f       movb *0a0a, r0
006d 0010 0000 0000 ffc8 ffc2 ff3c --C- 03fa:0309            beq 040e
006d 0010 0000 0000 ffc8 ffc2 ff3c --C- 03fc:0ab7 0a0a       inc 0a0a
006d 0010 0000 0000 ffc8 ffc2 ff3c --C- 0400:2017 2520       cmp r0, $0025
006d 0010 0000 0000 ffc8 ffc2 ff3c ---- 0404:0306            beq 0412
006d 0010 0000 0000 ffc8 ffc2 ff3c ---- 0406:100e            mov r0, (sp)
006d 0010 0000 0000 ffc8 ffc2 ff3c ---- 0408:09df 9409       jsr pc, *$0594
006d 0010 0000 0000 ffc8 ffc2 ff3a ---- 0594:1166            mov r5, -(sp)
006d 0010 0000 0000 ffc8 ffc2 ff38 -N-- 0596:1185            mov sp, r5
006d 0010 0000 0000 ffc8 ff38 ff38 -N-- 0598:1dc0 7a1d       mov 0a16, r0
0a18 0010 0000 0000 ffc8 ff38 ff38 ---- 059c:0204            bne 05a6
0a18 0010 0000 0000 ffc8 ff38 ff38 ---- 05a6:9d50 049d       movb 4(r5), (r0)+
0a19 0010 0000 0000 ffc8 ff38 ff38 ---- 05aa:0307            beq 05ba
0a19 0010 0000 0000 ffc8 ff38 ff38 ---- 05ac:0ab7 660a       inc 0a16
0a19 0010 0000 0000 ffc8 ff38 ff38 ---- 05b0:0af7 600a       dec 0a14
0a19 0010 0000 0000 ffc8 ff38 ff38 Z--- 05b4:0602            bgt 05ba
0a19 0010 0000 0000 ffc8 ff38 ff38 Z--- 05b6:09f7 1409       jsr pc, 05ce
0a19 0010 0000 0000 ffc8 ff38 ff36 Z--- 05ce:1dc0 441d       mov 0a16, r0
0a19 0010 0000 0000 ffc8 ff38 ff36 ---- 05d2:030a            beq 05e8
0a19 0010 0000 0000 ffc8 ff38 ff36 ---- 05d4:e5c0 18e5       sub $0a18, r0
0001 0010 0000 0000 ffc8 ff38 ff36 ---- 05d8:1037 ec10       mov r0, 09c8
0001 0010 0000 0000 ffc8 ff38 ff36 ---- 05dc:1dc0 321d       mov 0a12, r0
0000 0010 0000 0000 ffc8 ff38 ff36 Z--- 05e0:0201            bne 05e4
0000 0010 0000 0000 ffc8 ff38 ff36 Z--- 05e2:0a80            inc r0
0001 0010 0000 0000 ffc8 ff38 ff36 ---- 05e4:8900            sys 0000
m0001 0010 0000 0000 ffc8 ff38 ff36 ---- 05e8:15f7 1815 0a18  mov $0a18, 0a16
0001 0010 0000 0000 ffc8 ff38 ff36 ---- 05ee:15f7 0015 0200  mov $0200, 0a14
0001 0010 0000 0000 ffc8 ff38 ff36 ---- 05f4:2dd7 1a2d 041a  cmp 0a12, $0002
0001 0010 0000 0000 ffc8 ff38 ff36 -NC- 05fa:8203            bhi 0602
0001 0010 0000 0000 ffc8 ff38 ff36 -NC- 05fc:15f7 0115 0001  mov $0001, 0a14
0001 0010 0000 0000 ffc8 ff38 ff36 --C- 0602:0087            rts pc, 
0001 0010 0000 0000 ffc8 ff38 ff38 --C- 05ba:1d40 041d       mov 4(r5), r0
006d 0010 0000 0000 ffc8 ff38 ff38 --C- 05be:1585            mov (sp)+, r5
006d 0010 0000 0000 ffc8 ffc2 ff3a -NC- 05c0:0087            rts pc, 
006d 0010 0000 0000 ffc8 ffc2 ff3c -NC- 040c:01f4            br 03f6
006d 0010 0000 0000 ffc8 ffc2 ff3c -NC- 03f6:9fc0 109f       movb *0a0a, r0
0065 0010 0000 0000 ffc8 ffc2 ff3c --C- 03fa:0309            beq 040e
0065 0010 0000 0000 ffc8 ffc2 ff3c --C- 03fc:0ab7 0a0a       inc 0a0a
0065 0010 0000 0000 ffc8 ffc2 ff3c --C- 0400:2017 2520       cmp r0, $0025
0065 0010 0000 0000 ffc8 ffc2 ff3c ---- 0404:0306            beq 0412
0065 0010 0000 0000 ffc8 ffc2 ff3c ---- 0406:100e            mov r0, (sp)
0065 0010 0000 0000 ffc8 ffc2 ff3c ---- 0408:09df 9409       jsr pc, *$0594
0065 0010 0000 0000 ffc8 ffc2 ff3a ---- 0594:1166            mov r5, -(sp)
0065 0010 0000 0000 ffc8 ffc2 ff38 -N-- 0596:1185            mov sp, r5
0065 0010 0000 0000 ffc8 ff38 ff38 -N-- 0598:1dc0 7a1d       mov 0a16, r0
0a18 0010 0000 0000 ffc8 ff38 ff38 ---- 059c:0204            bne 05a6
0a18 0010 0000 0000 ffc8 ff38 ff38 ---- 05a6:9d50 049d       movb 4(r5), (r0)+
0a19 0010 0000 0000 ffc8 ff38 ff38 ---- 05aa:0307            beq 05ba
0a19 0010 0000 0000 ffc8 ff38 ff38 ---- 05ac:0ab7 660a       inc 0a16
0a19 0010 0000 0000 ffc8 ff38 ff38 ---- 05b0:0af7 600a       dec 0a14
0a19 0010 0000 0000 ffc8 ff38 ff38 Z--- 05b4:0602            bgt 05ba
0a19 0010 0000 0000 ffc8 ff38 ff38 Z--- 05b6:09f7 1409       jsr pc, 05ce
0a19 0010 0000 0000 ffc8 ff38 ff36 Z--- 05ce:1dc0 441d       mov 0a16, r0
0a19 0010 0000 0000 ffc8 ff38 ff36 ---- 05d2:030a            beq 05e8
0a19 0010 0000 0000 ffc8 ff38 ff36 ---- 05d4:e5c0 18e5       sub $0a18, r0
0001 0010 0000 0000 ffc8 ff38 ff36 ---- 05d8:1037 ec10       mov r0, 09c8
0001 0010 0000 0000 ffc8 ff38 ff36 ---- 05dc:1dc0 321d       mov 0a12, r0
0000 0010 0000 0000 ffc8 ff38 ff36 Z--- 05e0:0201            bne 05e4
0000 0010 0000 0000 ffc8 ff38 ff36 Z--- 05e2:0a80            inc r0
0001 0010 0000 0000 ffc8 ff38 ff36 ---- 05e4:8900            sys 0000
e0001 0010 0000 0000 ffc8 ff38 ff36 ---- 05e8:15f7 1815 0a18  mov $0a18, 0a16
0001 0010 0000 0000 ffc8 ff38 ff36 ---- 05ee:15f7 0015 0200  mov $0200, 0a14
0001 0010 0000 0000 ffc8 ff38 ff36 ---- 05f4:2dd7 1a2d 041a  cmp 0a12, $0002
0001 0010 0000 0000 ffc8 ff38 ff36 -NC- 05fa:8203            bhi 0602
0001 0010 0000 0000 ffc8 ff38 ff36 -NC- 05fc:15f7 0115 0001  mov $0001, 0a14
0001 0010 0000 0000 ffc8 ff38 ff36 --C- 0602:0087            rts pc, 
0001 0010 0000 0000 ffc8 ff38 ff38 --C- 05ba:1d40 041d       mov 4(r5), r0
0065 0010 0000 0000 ffc8 ff38 ff38 --C- 05be:1585            mov (sp)+, r5
0065 0010 0000 0000 ffc8 ffc2 ff3a -NC- 05c0:0087            rts pc, 
0065 0010 0000 0000 ffc8 ffc2 ff3c -NC- 040c:01f4            br 03f6
0065 0010 0000 0000 ffc8 ffc2 ff3c -NC- 03f6:9fc0 109f       movb *0a0a, r0
0020 0010 0000 0000 ffc8 ffc2 ff3c --C- 03fa:0309            beq 040e
0020 0010 0000 0000 ffc8 ffc2 ff3c --C- 03fc:0ab7 0a0a       inc 0a0a
0020 0010 0000 0000 ffc8 ffc2 ff3c --C- 0400:2017 2520       cmp r0, $0025
0020 0010 0000 0000 ffc8 ffc2 ff3c -NC- 0404:0306            beq 0412
0020 0010 0000 0000 ffc8 ffc2 ff3c -NC- 0406:100e            mov r0, (sp)
0020 0010 0000 0000 ffc8 ffc2 ff3c --C- 0408:09df 9409       jsr pc, *$0594
0020 0010 0000 0000 ffc8 ffc2 ff3a --C- 0594:1166            mov r5, -(sp)
0020 0010 0000 0000 ffc8 ffc2 ff38 -NC- 0596:1185            mov sp, r5
0020 0010 0000 0000 ffc8 ff38 ff38 -NC- 0598:1dc0 7a1d       mov 0a16, r0
0a18 0010 0000 0000 ffc8 ff38 ff38 --C- 059c:0204            bne 05a6
0a18 0010 0000 0000 ffc8 ff38 ff38 --C- 05a6:9d50 049d       movb 4(r5), (r0)+
0a19 0010 0000 0000 ffc8 ff38 ff38 --C- 05aa:0307            beq 05ba
0a19 0010 0000 0000 ffc8 ff38 ff38 --C- 05ac:0ab7 660a       inc 0a16
0a19 0010 0000 0000 ffc8 ff38 ff38 --C- 05b0:0af7 600a       dec 0a14
0a19 0010 0000 0000 ffc8 ff38 ff38 Z-C- 05b4:0602            bgt 05ba
0a19 0010 0000 0000 ffc8 ff38 ff38 Z-C- 05b6:09f7 1409       jsr pc, 05ce
0a19 0010 0000 0000 ffc8 ff38 ff36 Z-C- 05ce:1dc0 441d       mov 0a16, r0
0a19 0010 0000 0000 ffc8 ff38 ff36 --C- 05d2:030a            beq 05e8
0a19 0010 0000 0000 ffc8 ff38 ff36 --C- 05d4:e5c0 18e5       sub $0a18, r0
0001 0010 0000 0000 ffc8 ff38 ff36 ---- 05d8:1037 ec10       mov r0, 09c8
0001 0010 0000 0000 ffc8 ff38 ff36 ---- 05dc:1dc0 321d       mov 0a12, r0
0000 0010 0000 0000 ffc8 ff38 ff36 Z--- 05e0:0201            bne 05e4
0000 0010 0000 0000 ffc8 ff38 ff36 Z--- 05e2:0a80            inc r0
0001 0010 0000 0000 ffc8 ff38 ff36 ---- 05e4:8900            sys 0000
 0001 0010 0000 0000 ffc8 ff38 ff36 ---- 05e8:15f7 1815 0a18  mov $0a18, 0a16
0001 0010 0000 0000 ffc8 ff38 ff36 ---- 05ee:15f7 0015 0200  mov $0200, 0a14
0001 0010 0000 0000 ffc8 ff38 ff36 ---- 05f4:2dd7 1a2d 041a  cmp 0a12, $0002
0001 0010 0000 0000 ffc8 ff38 ff36 -NC- 05fa:8203            bhi 0602
0001 0010 0000 0000 ffc8 ff38 ff36 -NC- 05fc:15f7 0115 0001  mov $0001, 0a14
0001 0010 0000 0000 ffc8 ff38 ff36 --C- 0602:0087            rts pc, 
0001 0010 0000 0000 ffc8 ff38 ff38 --C- 05ba:1d40 041d       mov 4(r5), r0
0020 0010 0000 0000 ffc8 ff38 ff38 --C- 05be:1585            mov (sp)+, r5
0020 0010 0000 0000 ffc8 ffc2 ff3a -NC- 05c0:0087            rts pc, 
0020 0010 0000 0000 ffc8 ffc2 ff3c -NC- 040c:01f4            br 03f6
0020 0010 0000 0000 ffc8 ffc2 ff3c -NC- 03f6:9fc0 109f       movb *0a0a, r0
006c 0010 0000 0000 ffc8 ffc2 ff3c --C- 03fa:0309            beq 040e
006c 0010 0000 0000 ffc8 ffc2 ff3c --C- 03fc:0ab7 0a0a       inc 0a0a
006c 0010 0000 0000 ffc8 ffc2 ff3c --C- 0400:2017 2520       cmp r0, $0025
006c 0010 0000 0000 ffc8 ffc2 ff3c ---- 0404:0306            beq 0412
006c 0010 0000 0000 ffc8 ffc2 ff3c ---- 0406:100e            mov r0, (sp)
006c 0010 0000 0000 ffc8 ffc2 ff3c ---- 0408:09df 9409       jsr pc, *$0594
006c 0010 0000 0000 ffc8 ffc2 ff3a ---- 0594:1166            mov r5, -(sp)
006c 0010 0000 0000 ffc8 ffc2 ff38 -N-- 0596:1185            mov sp, r5
006c 0010 0000 0000 ffc8 ff38 ff38 -N-- 0598:1dc0 7a1d       mov 0a16, r0
0a18 0010 0000 0000 ffc8 ff38 ff38 ---- 059c:0204            bne 05a6
0a18 0010 0000 0000 ffc8 ff38 ff38 ---- 05a6:9d50 049d       movb 4(r5), (r0)+
0a19 0010 0000 0000 ffc8 ff38 ff38 ---- 05aa:0307            beq 05ba
0a19 0010 0000 0000 ffc8 ff38 ff38 ---- 05ac:0ab7 660a       inc 0a16
0a19 0010 0000 0000 ffc8 ff38 ff38 ---- 05b0:0af7 600a       dec 0a14
0a19 0010 0000 0000 ffc8 ff38 ff38 Z--- 05b4:0602            bgt 05ba
0a19 0010 0000 0000 ffc8 ff38 ff38 Z--- 05b6:09f7 1409       jsr pc, 05ce
0a19 0010 0000 0000 ffc8 ff38 ff36 Z--- 05ce:1dc0 441d       mov 0a16, r0
0a19 0010 0000 0000 ffc8 ff38 ff36 ---- 05d2:030a            beq 05e8
0a19 0010 0000 0000 ffc8 ff38 ff36 ---- 05d4:e5c0 18e5       sub $0a18, r0
0001 0010 0000 0000 ffc8 ff38 ff36 ---- 05d8:1037 ec10       mov r0, 09c8
0001 0010 0000 0000 ffc8 ff38 ff36 ---- 05dc:1dc0 321d       mov 0a12, r0
0000 0010 0000 0000 ffc8 ff38 ff36 Z--- 05e0:0201            bne 05e4
0000 0010 0000 0000 ffc8 ff38 ff36 Z--- 05e2:0a80            inc r0
0001 0010 0000 0000 ffc8 ff38 ff36 ---- 05e4:8900            sys 0000
l0001 0010 0000 0000 ffc8 ff38 ff36 ---- 05e8:15f7 1815 0a18  mov $0a18, 0a16
0001 0010 0000 0000 ffc8 ff38 ff36 ---- 05ee:15f7 0015 0200  mov $0200, 0a14
0001 0010 0000 0000 ffc8 ff38 ff36 ---- 05f4:2dd7 1a2d 041a  cmp 0a12, $0002
0001 0010 0000 0000 ffc8 ff38 ff36 -NC- 05fa:8203            bhi 0602
0001 0010 0000 0000 ffc8 ff38 ff36 -NC- 05fc:15f7 0115 0001  mov $0001, 0a14
0001 0010 0000 0000 ffc8 ff38 ff36 --C- 0602:0087            rts pc, 
0001 0010 0000 0000 ffc8 ff38 ff38 --C- 05ba:1d40 041d       mov 4(r5), r0
006c 0010 0000 0000 ffc8 ff38 ff38 --C- 05be:1585            mov (sp)+, r5
006c 0010 0000 0000 ffc8 ffc2 ff3a -NC- 05c0:0087            rts pc, 
006c 0010 0000 0000 ffc8 ffc2 ff3c -NC- 040c:01f4            br 03f6
006c 0010 0000 0000 ffc8 ffc2 ff3c -NC- 03f6:9fc0 109f       movb *0a0a, r0
0069 0010 0000 0000 ffc8 ffc2 ff3c --C- 03fa:0309            beq 040e
0069 0010 0000 0000 ffc8 ffc2 ff3c --C- 03fc:0ab7 0a0a       inc 0a0a
0069 0010 0000 0000 ffc8 ffc2 ff3c --C- 0400:2017 2520       cmp r0, $0025
0069 0010 0000 0000 ffc8 ffc2 ff3c ---- 0404:0306            beq 0412
0069 0010 0000 0000 ffc8 ffc2 ff3c ---- 0406:100e            mov r0, (sp)
0069 0010 0000 0000 ffc8 ffc2 ff3c ---- 0408:09df 9409       jsr pc, *$0594
0069 0010 0000 0000 ffc8 ffc2 ff3a ---- 0594:1166            mov r5, -(sp)
0069 0010 0000 0000 ffc8 ffc2 ff38 -N-- 0596:1185            mov sp, r5
0069 0010 0000 0000 ffc8 ff38 ff38 -N-- 0598:1dc0 7a1d       mov 0a16, r0
0a18 0010 0000 0000 ffc8 ff38 ff38 ---- 059c:0204            bne 05a6
0a18 0010 0000 0000 ffc8 ff38 ff38 ---- 05a6:9d50 049d       movb 4(r5), (r0)+
0a19 0010 0000 0000 ffc8 ff38 ff38 ---- 05aa:0307            beq 05ba
0a19 0010 0000 0000 ffc8 ff38 ff38 ---- 05ac:0ab7 660a       inc 0a16
0a19 0010 0000 0000 ffc8 ff38 ff38 ---- 05b0:0af7 600a       dec 0a14
0a19 0010 0000 0000 ffc8 ff38 ff38 Z--- 05b4:0602            bgt 05ba
0a19 0010 0000 0000 ffc8 ff38 ff38 Z--- 05b6:09f7 1409       jsr pc, 05ce
0a19 0010 0000 0000 ffc8 ff38 ff36 Z--- 05ce:1dc0 441d       mov 0a16, r0
0a19 0010 0000 0000 ffc8 ff38 ff36 ---- 05d2:030a            beq 05e8
0a19 0010 0000 0000 ffc8 ff38 ff36 ---- 05d4:e5c0 18e5       sub $0a18, r0
0001 0010 0000 0000 ffc8 ff38 ff36 ---- 05d8:1037 ec10       mov r0, 09c8
0001 0010 0000 0000 ffc8 ff38 ff36 ---- 05dc:1dc0 321d       mov 0a12, r0
0000 0010 0000 0000 ffc8 ff38 ff36 Z--- 05e0:0201            bne 05e4
0000 0010 0000 0000 ffc8 ff38 ff36 Z--- 05e2:0a80            inc r0
0001 0010 0000 0000 ffc8 ff38 ff36 ---- 05e4:8900            sys 0000
i0001 0010 0000 0000 ffc8 ff38 ff36 ---- 05e8:15f7 1815 0a18  mov $0a18, 0a16
0001 0010 0000 0000 ffc8 ff38 ff36 ---- 05ee:15f7 0015 0200  mov $0200, 0a14
0001 0010 0000 0000 ffc8 ff38 ff36 ---- 05f4:2dd7 1a2d 041a  cmp 0a12, $0002
0001 0010 0000 0000 ffc8 ff38 ff36 -NC- 05fa:8203            bhi 0602
0001 0010 0000 0000 ffc8 ff38 ff36 -NC- 05fc:15f7 0115 0001  mov $0001, 0a14
0001 0010 0000 0000 ffc8 ff38 ff36 --C- 0602:0087            rts pc, 
0001 0010 0000 0000 ffc8 ff38 ff38 --C- 05ba:1d40 041d       mov 4(r5), r0
0069 0010 0000 0000 ffc8 ff38 ff38 --C- 05be:1585            mov (sp)+, r5
0069 0010 0000 0000 ffc8 ffc2 ff3a -NC- 05c0:0087            rts pc, 
0069 0010 0000 0000 ffc8 ffc2 ff3c -NC- 040c:01f4            br 03f6
0069 0010 0000 0000 ffc8 ffc2 ff3c -NC- 03f6:9fc0 109f       movb *0a0a, r0
0073 0010 0000 0000 ffc8 ffc2 ff3c --C- 03fa:0309            beq 040e
0073 0010 0000 0000 ffc8 ffc2 ff3c --C- 03fc:0ab7 0a0a       inc 0a0a
0073 0010 0000 0000 ffc8 ffc2 ff3c --C- 0400:2017 2520       cmp r0, $0025
0073 0010 0000 0000 ffc8 ffc2 ff3c ---- 0404:0306            beq 0412
0073 0010 0000 0000 ffc8 ffc2 ff3c ---- 0406:100e            mov r0, (sp)
0073 0010 0000 0000 ffc8 ffc2 ff3c ---- 0408:09df 9409       jsr pc, *$0594
0073 0010 0000 0000 ffc8 ffc2 ff3a ---- 0594:1166            mov r5, -(sp)
0073 0010 0000 0000 ffc8 ffc2 ff38 -N-- 0596:1185            mov sp, r5
0073 0010 0000 0000 ffc8 ff38 ff38 -N-- 0598:1dc0 7a1d       mov 0a16, r0
0a18 0010 0000 0000 ffc8 ff38 ff38 ---- 059c:0204            bne 05a6
0a18 0010 0000 0000 ffc8 ff38 ff38 ---- 05a6:9d50 049d       movb 4(r5), (r0)+
0a19 0010 0000 0000 ffc8 ff38 ff38 ---- 05aa:0307            beq 05ba
0a19 0010 0000 0000 ffc8 ff38 ff38 ---- 05ac:0ab7 660a       inc 0a16
0a19 0010 0000 0000 ffc8 ff38 ff38 ---- 05b0:0af7 600a       dec 0a14
0a19 0010 0000 0000 ffc8 ff38 ff38 Z--- 05b4:0602            bgt 05ba
0a19 0010 0000 0000 ffc8 ff38 ff38 Z--- 05b6:09f7 1409       jsr pc, 05ce
0a19 0010 0000 0000 ffc8 ff38 ff36 Z--- 05ce:1dc0 441d       mov 0a16, r0
0a19 0010 0000 0000 ffc8 ff38 ff36 ---- 05d2:030a            beq 05e8
0a19 0010 0000 0000 ffc8 ff38 ff36 ---- 05d4:e5c0 18e5       sub $0a18, r0
0001 0010 0000 0000 ffc8 ff38 ff36 ---- 05d8:1037 ec10       mov r0, 09c8
0001 0010 0000 0000 ffc8 ff38 ff36 ---- 05dc:1dc0 321d       mov 0a12, r0
0000 0010 0000 0000 ffc8 ff38 ff36 Z--- 05e0:0201            bne 05e4
0000 0010 0000 0000 ffc8 ff38 ff36 Z--- 05e2:0a80            inc r0
0001 0010 0000 0000 ffc8 ff38 ff36 ---- 05e4:8900            sys 0000
s0001 0010 0000 0000 ffc8 ff38 ff36 ---- 05e8:15f7 1815 0a18  mov $0a18, 0a16
0001 0010 0000 0000 ffc8 ff38 ff36 ---- 05ee:15f7 0015 0200  mov $0200, 0a14
0001 0010 0000 0000 ffc8 ff38 ff36 ---- 05f4:2dd7 1a2d 041a  cmp 0a12, $0002
0001 0010 0000 0000 ffc8 ff38 ff36 -NC- 05fa:8203            bhi 0602
0001 0010 0000 0000 ffc8 ff38 ff36 -NC- 05fc:15f7 0115 0001  mov $0001, 0a14
0001 0010 0000 0000 ffc8 ff38 ff36 --C- 0602:0087            rts pc, 
0001 0010 0000 0000 ffc8 ff38 ff38 --C- 05ba:1d40 041d       mov 4(r5), r0
0073 0010 0000 0000 ffc8 ff38 ff38 --C- 05be:1585            mov (sp)+, r5
0073 0010 0000 0000 ffc8 ffc2 ff3a -NC- 05c0:0087            rts pc, 
0073 0010 0000 0000 ffc8 ffc2 ff3c -NC- 040c:01f4            br 03f6
0073 0010 0000 0000 ffc8 ffc2 ff3c -NC- 03f6:9fc0 109f       movb *0a0a, r0
0074 0010 0000 0000 ffc8 ffc2 ff3c --C- 03fa:0309            beq 040e
0074 0010 0000 0000 ffc8 ffc2 ff3c --C- 03fc:0ab7 0a0a       inc 0a0a
0074 0010 0000 0000 ffc8 ffc2 ff3c --C- 0400:2017 2520       cmp r0, $0025
0074 0010 0000 0000 ffc8 ffc2 ff3c ---- 0404:0306            beq 0412
0074 0010 0000 0000 ffc8 ffc2 ff3c ---- 0406:100e            mov r0, (sp)
0074 0010 0000 0000 ffc8 ffc2 ff3c ---- 0408:09df 9409       jsr pc, *$0594
0074 0010 0000 0000 ffc8 ffc2 ff3a ---- 0594:1166            mov r5, -(sp)
0074 0010 0000 0000 ffc8 ffc2 ff38 -N-- 0596:1185            mov sp, r5
0074 0010 0000 0000 ffc8 ff38 ff38 -N-- 0598:1dc0 7a1d       mov 0a16, r0
0a18 0010 0000 0000 ffc8 ff38 ff38 ---- 059c:0204            bne 05a6
0a18 0010 0000 0000 ffc8 ff38 ff38 ---- 05a6:9d50 049d       movb 4(r5), (r0)+
0a19 0010 0000 0000 ffc8 ff38 ff38 ---- 05aa:0307            beq 05ba
0a19 0010 0000 0000 ffc8 ff38 ff38 ---- 05ac:0ab7 660a       inc 0a16
0a19 0010 0000 0000 ffc8 ff38 ff38 ---- 05b0:0af7 600a       dec 0a14
0a19 0010 0000 0000 ffc8 ff38 ff38 Z--- 05b4:0602            bgt 05ba
0a19 0010 0000 0000 ffc8 ff38 ff38 Z--- 05b6:09f7 1409       jsr pc, 05ce
0a19 0010 0000 0000 ffc8 ff38 ff36 Z--- 05ce:1dc0 441d       mov 0a16, r0
0a19 0010 0000 0000 ffc8 ff38 ff36 ---- 05d2:030a            beq 05e8
0a19 0010 0000 0000 ffc8 ff38 ff36 ---- 05d4:e5c0 18e5       sub $0a18, r0
0001 0010 0000 0000 ffc8 ff38 ff36 ---- 05d8:1037 ec10       mov r0, 09c8
0001 0010 0000 0000 ffc8 ff38 ff36 ---- 05dc:1dc0 321d       mov 0a12, r0
0000 0010 0000 0000 ffc8 ff38 ff36 Z--- 05e0:0201            bne 05e4
0000 0010 0000 0000 ffc8 ff38 ff36 Z--- 05e2:0a80            inc r0
0001 0010 0000 0000 ffc8 ff38 ff36 ---- 05e4:8900            sys 0000
t0001 0010 0000 0000 ffc8 ff38 ff36 ---- 05e8:15f7 1815 0a18  mov $0a18, 0a16
0001 0010 0000 0000 ffc8 ff38 ff36 ---- 05ee:15f7 0015 0200  mov $0200, 0a14
0001 0010 0000 0000 ffc8 ff38 ff36 ---- 05f4:2dd7 1a2d 041a  cmp 0a12, $0002
0001 0010 0000 0000 ffc8 ff38 ff36 -NC- 05fa:8203            bhi 0602
0001 0010 0000 0000 ffc8 ff38 ff36 -NC- 05fc:15f7 0115 0001  mov $0001, 0a14
0001 0010 0000 0000 ffc8 ff38 ff36 --C- 0602:0087            rts pc, 
0001 0010 0000 0000 ffc8 ff38 ff38 --C- 05ba:1d40 041d       mov 4(r5), r0
0074 0010 0000 0000 ffc8 ff38 ff38 --C- 05be:1585            mov (sp)+, r5
0074 0010 0000 0000 ffc8 ffc2 ff3a -NC- 05c0:0087            rts pc, 
0074 0010 0000 0000 ffc8 ffc2 ff3c -NC- 040c:01f4            br 03f6
0074 0010 0000 0000 ffc8 ffc2 ff3c -NC- 03f6:9fc0 109f       movb *0a0a, r0
000a 0010 0000 0000 ffc8 ffc2 ff3c --C- 03fa:0309            beq 040e
000a 0010 0000 0000 ffc8 ffc2 ff3c --C- 03fc:0ab7 0a0a       inc 0a0a
000a 0010 0000 0000 ffc8 ffc2 ff3c --C- 0400:2017 2520       cmp r0, $0025
000a 0010 0000 0000 ffc8 ffc2 ff3c -NC- 0404:0306            beq 0412
000a 0010 0000 0000 ffc8 ffc2 ff3c -NC- 0406:100e            mov r0, (sp)
000a 0010 0000 0000 ffc8 ffc2 ff3c --C- 0408:09df 9409       jsr pc, *$0594
000a 0010 0000 0000 ffc8 ffc2 ff3a --C- 0594:1166            mov r5, -(sp)
000a 0010 0000 0000 ffc8 ffc2 ff38 -NC- 0596:1185            mov sp, r5
000a 0010 0000 0000 ffc8 ff38 ff38 -NC- 0598:1dc0 7a1d       mov 0a16, r0
0a18 0010 0000 0000 ffc8 ff38 ff38 --C- 059c:0204            bne 05a6
0a18 0010 0000 0000 ffc8 ff38 ff38 --C- 05a6:9d50 049d       movb 4(r5), (r0)+
0a19 0010 0000 0000 ffc8 ff38 ff38 --C- 05aa:0307            beq 05ba
0a19 0010 0000 0000 ffc8 ff38 ff38 --C- 05ac:0ab7 660a       inc 0a16
0a19 0010 0000 0000 ffc8 ff38 ff38 --C- 05b0:0af7 600a       dec 0a14
0a19 0010 0000 0000 ffc8 ff38 ff38 Z-C- 05b4:0602            bgt 05ba
0a19 0010 0000 0000 ffc8 ff38 ff38 Z-C- 05b6:09f7 1409       jsr pc, 05ce
0a19 0010 0000 0000 ffc8 ff38 ff36 Z-C- 05ce:1dc0 441d       mov 0a16, r0
0a19 0010 0000 0000 ffc8 ff38 ff36 --C- 05d2:030a            beq 05e8
0a19 0010 0000 0000 ffc8 ff38 ff36 --C- 05d4:e5c0 18e5       sub $0a18, r0
0001 0010 0000 0000 ffc8 ff38 ff36 ---- 05d8:1037 ec10       mov r0, 09c8
0001 0010 0000 0000 ffc8 ff38 ff36 ---- 05dc:1dc0 321d       mov 0a12, r0
0000 0010 0000 0000 ffc8 ff38 ff36 Z--- 05e0:0201            bne 05e4
0000 0010 0000 0000 ffc8 ff38 ff36 Z--- 05e2:0a80            inc r0
0001 0010 0000 0000 ffc8 ff38 ff36 ---- 05e4:8900            sys 0000

0001 0010 0000 0000 ffc8 ff38 ff36 ---- 05e8:15f7 1815 0a18  mov $0a18, 0a16
0001 0010 0000 0000 ffc8 ff38 ff36 ---- 05ee:15f7 0015 0200  mov $0200, 0a14
0001 0010 0000 0000 ffc8 ff38 ff36 ---- 05f4:2dd7 1a2d 041a  cmp 0a12, $0002
0001 0010 0000 0000 ffc8 ff38 ff36 -NC- 05fa:8203            bhi 0602
0001 0010 0000 0000 ffc8 ff38 ff36 -NC- 05fc:15f7 0115 0001  mov $0001, 0a14
0001 0010 0000 0000 ffc8 ff38 ff36 --C- 0602:0087            rts pc, 
0001 0010 0000 0000 ffc8 ff38 ff38 --C- 05ba:1d40 041d       mov 4(r5), r0
000a 0010 0000 0000 ffc8 ff38 ff38 --C- 05be:1585            mov (sp)+, r5
000a 0010 0000 0000 ffc8 ffc2 ff3a -NC- 05c0:0087            rts pc, 
000a 0010 0000 0000 ffc8 ffc2 ff3c -NC- 040c:01f4            br 03f6
000a 0010 0000 0000 ffc8 ffc2 ff3c -NC- 03f6:9fc0 109f       movb *0a0a, r0
0000 0010 0000 0000 ffc8 ffc2 ff3c Z-C- 03fa:0309            beq 040e
0000 0010 0000 0000 ffc8 ffc2 ff3c Z-C- 040e:0077 b600       jmp 08c8
0000 0010 0000 0000 ffc8 ffc2 ff3c Z-C- 08c8:1141            mov r5, r1
0000 ffc2 0000 0000 ffc8 ffc2 ff3c -NC- 08ca:1844            mov -(r1), r4
0000 ffc0 0000 0000 0000 ffc2 ff3c Z-C- 08cc:1843            mov -(r1), r3
0000 ffbe 0000 0000 0000 ffc2 ff3c Z-C- 08ce:1842            mov -(r1), r2
0000 ffbc 0000 0000 0000 ffc2 ff3c Z-C- 08d0:1146            mov r5, sp
0000 ffbc 0000 0000 0000 ffc2 ffc2 -NC- 08d2:1585            mov (sp)+, r5
0000 ffbc 0000 0000 0000 ffd4 ffc4 -NC- 08d4:0087            rts pc, 
0000 ffbc 0000 0000 0000 ffd4 ffc6 -NC- 0192:09f7 1a09       jsr pc, 08b0
0000 ffbc 0000 0000 0000 ffd4 ffc4 -NC- 08b0:1166            mov r5, -(sp)
0000 ffbc 0000 0000 0000 ffd4 ffc2 -NC- 08b2:1185            mov sp, r5
0000 ffbc 0000 0000 0000 ffc2 ffc2 -NC- 08b4:1d40 041d       mov 4(r5), r0
0965 ffbc 0000 0000 0000 ffc2 ffc2 --C- 08b8:8901            sys 0001

